target datalayout = "e-m:e-p270:32:32-p271:32:32-p272:64:64-i64:64-i128:128-f80:128-n8:16:32:64-S128"
target triple = "x86_64-pc-linux-gnu"

%struct.nameData = type { [64 x i8] }
%struct.ItemPointerData = type { %struct.BlockIdData, i16 }
%struct.BlockIdData = type { i16, i16 }
%struct.FormData_pg_collation = type { i32, %struct.nameData, i32, i32, i8, i8, i32 }
%struct.HeapTupleData = type { i32, %struct.ItemPointerData, i32, ptr }
%struct.HeapTupleHeaderData = type { %union.anon, %struct.ItemPointerData, i16, i16, i8, [0 x i8] }
%union.anon = type { %struct.HeapTupleFields }
%struct.HeapTupleFields = type { i32, i32, %union.anon.0 }
%union.anon.0 = type { i32 }

@.str.14 = private unnamed_addr constant [14 x i8] c"ri_triggers.c\00", align 1
@.str.63 = private unnamed_addr constant [37 x i8] c"cache lookup failed for collation %u\00", align 1
@__func__.ri_GenerateQualCollation = private unnamed_addr constant [25 x i8] c"ri_GenerateQualCollation\00", align 1
@.str.64 = private unnamed_addr constant [12 x i8] c" COLLATE %s\00", align 1
@.str.65 = private unnamed_addr constant [4 x i8] c".%s\00", align 1

; Function Attrs: nounwind uwtable
define internal void @quoteOneName(ptr noundef %0, ptr noundef %1) #0 {
  %3 = alloca ptr, align 8
  %4 = alloca ptr, align 8
  store ptr %0, ptr %3, align 8
  store ptr %1, ptr %4, align 8
  %5 = load ptr, ptr %3, align 8
  %6 = getelementptr inbounds nuw i8, ptr %5, i32 1
  store ptr %6, ptr %3, align 8
  store i8 34, ptr %5, align 1
  br label %7

7:                                                ; preds = %19, %2
  %8 = load ptr, ptr %4, align 8
  %9 = load i8, ptr %8, align 1
  %10 = icmp ne i8 %9, 0
  br i1 %10, label %11, label %25

11:                                               ; preds = %7
  %12 = load ptr, ptr %4, align 8
  %13 = load i8, ptr %12, align 1
  %14 = sext i8 %13 to i32
  %15 = icmp eq i32 %14, 34
  br i1 %15, label %16, label %19

16:                                               ; preds = %11
  %17 = load ptr, ptr %3, align 8
  %18 = getelementptr inbounds nuw i8, ptr %17, i32 1
  store ptr %18, ptr %3, align 8
  store i8 34, ptr %17, align 1
  br label %19

19:                                               ; preds = %16, %11
  %20 = load ptr, ptr %4, align 8
  %21 = getelementptr inbounds nuw i8, ptr %20, i32 1
  store ptr %21, ptr %4, align 8
  %22 = load i8, ptr %20, align 1
  %23 = load ptr, ptr %3, align 8
  %24 = getelementptr inbounds nuw i8, ptr %23, i32 1
  store ptr %24, ptr %3, align 8
  store i8 %22, ptr %23, align 1
  br label %7, !llvm.loop !11

25:                                               ; preds = %7
  %26 = load ptr, ptr %3, align 8
  %27 = getelementptr inbounds nuw i8, ptr %26, i32 1
  store ptr %27, ptr %3, align 8
  store i8 34, ptr %26, align 1
  %28 = load ptr, ptr %3, align 8
  store i8 0, ptr %28, align 1
  ret void
}

; Function Attrs: inlinehint nounwind uwtable
define internal ptr @GETSTRUCT(ptr noundef %0) #4 {
  %2 = alloca ptr, align 8
  store ptr %0, ptr %2, align 8
  %3 = load ptr, ptr %2, align 8
  %4 = getelementptr inbounds nuw %struct.HeapTupleData, ptr %3, i32 0, i32 3
  %5 = load ptr, ptr %4, align 8
  %6 = load ptr, ptr %2, align 8
  %7 = getelementptr inbounds nuw %struct.HeapTupleData, ptr %6, i32 0, i32 3
  %8 = load ptr, ptr %7, align 8
  %9 = getelementptr inbounds nuw %struct.HeapTupleHeaderData, ptr %8, i32 0, i32 4
  %10 = load i8, ptr %9, align 2
  %11 = zext i8 %10 to i32
  %12 = sext i32 %11 to i64
  %13 = getelementptr inbounds i8, ptr %5, i64 %12
  ret ptr %13
}

; Function Attrs: inlinehint nounwind uwtable
define internal i64 @ObjectIdGetDatum(i32 noundef %0) #4 {
  %2 = alloca i32, align 4
  store i32 %0, ptr %2, align 4
  %3 = load i32, ptr %2, align 4
  %4 = zext i32 %3 to i64
  ret i64 %4
}

; Function Attrs: nounwind uwtable
define internal void @ri_GenerateQualCollation(ptr noundef %0, i32 noundef %1) #0 {
  %3 = alloca ptr, align 8
  %4 = alloca i32, align 4
  %5 = alloca ptr, align 8
  %6 = alloca ptr, align 8
  %7 = alloca ptr, align 8
  %8 = alloca [131 x i8], align 16
  %9 = alloca i32, align 4
  store ptr %0, ptr %3, align 8
  store i32 %1, ptr %4, align 4
  call void @llvm.lifetime.start.p0(i64 8, ptr %5) #9
  call void @llvm.lifetime.start.p0(i64 8, ptr %6) #9
  call void @llvm.lifetime.start.p0(i64 8, ptr %7) #9
  call void @llvm.lifetime.start.p0(i64 131, ptr %8) #9
  %10 = load i32, ptr %4, align 4
  %11 = icmp ne i32 %10, 0
  br i1 %11, label %13, label %12

12:                                               ; preds = %2
  store i32 1, ptr %9, align 4
  br label %50

13:                                               ; preds = %2
  %14 = load i32, ptr %4, align 4
  %15 = call i64 @ObjectIdGetDatum(i32 noundef %14)
  %16 = call ptr @SearchSysCache1(i32 noundef 16, i64 noundef %15)
  store ptr %16, ptr %5, align 8
  %17 = load ptr, ptr %5, align 8
  %18 = icmp ne ptr %17, null
  br i1 %18, label %31, label %19

19:                                               ; preds = %13
  br label %20

20:                                               ; preds = %19
  br i1 true, label %21, label %23

21:                                               ; preds = %20
  %22 = call zeroext i1 @errstart_cold(i32 noundef 21, ptr noundef null) #10
  br i1 %22, label %25, label %28

23:                                               ; preds = %20
  %24 = call zeroext i1 @errstart(i32 noundef 21, ptr noundef null)
  br i1 %24, label %25, label %28

25:                                               ; preds = %23, %21
  %26 = load i32, ptr %4, align 4
  %27 = call i32 (ptr, ...) @errmsg_internal(ptr noundef @.str.63, i32 noundef %26)
  call void @errfinish(ptr noundef @.str.14, i32 noundef 2108, ptr noundef @__func__.ri_GenerateQualCollation)
  br label %28

28:                                               ; preds = %25, %23, %21
  unreachable

29:                                               ; No predecessors!
  br label %30

30:                                               ; preds = %29
  br label %31

31:                                               ; preds = %30, %13
  %32 = load ptr, ptr %5, align 8
  %33 = call ptr @GETSTRUCT(ptr noundef %32)
  store ptr %33, ptr %6, align 8
  %34 = load ptr, ptr %6, align 8
  %35 = getelementptr inbounds nuw %struct.FormData_pg_collation, ptr %34, i32 0, i32 1
  %36 = getelementptr inbounds nuw %struct.nameData, ptr %35, i32 0, i32 0
  %37 = getelementptr inbounds [64 x i8], ptr %36, i64 0, i64 0
  store ptr %37, ptr %7, align 8
  %38 = getelementptr inbounds [131 x i8], ptr %8, i64 0, i64 0
  %39 = load ptr, ptr %6, align 8
  %40 = getelementptr inbounds nuw %struct.FormData_pg_collation, ptr %39, i32 0, i32 2
  %41 = load i32, ptr %40, align 4
  %42 = call ptr @get_namespace_name(i32 noundef %41)
  call void @quoteOneName(ptr noundef %38, ptr noundef %42)
  %43 = load ptr, ptr %3, align 8
  %44 = getelementptr inbounds [131 x i8], ptr %8, i64 0, i64 0
  call void (ptr, ptr, ...) @appendStringInfo(ptr noundef %43, ptr noundef @.str.64, ptr noundef %44)
  %45 = getelementptr inbounds [131 x i8], ptr %8, i64 0, i64 0
  %46 = load ptr, ptr %7, align 8
  call void @quoteOneName(ptr noundef %45, ptr noundef %46)
  %47 = load ptr, ptr %3, align 8
  %48 = getelementptr inbounds [131 x i8], ptr %8, i64 0, i64 0
  call void (ptr, ptr, ...) @appendStringInfo(ptr noundef %47, ptr noundef @.str.65, ptr noundef %48)
  %49 = load ptr, ptr %5, align 8
  call void @ReleaseSysCache(ptr noundef %49)
  store i32 0, ptr %9, align 4
  br label %50

50:                                               ; preds = %31, %12
  call void @llvm.lifetime.end.p0(i64 131, ptr %8) #9
  call void @llvm.lifetime.end.p0(i64 8, ptr %7) #9
  call void @llvm.lifetime.end.p0(i64 8, ptr %6) #9
  call void @llvm.lifetime.end.p0(i64 8, ptr %5) #9
  %51 = load i32, ptr %9, align 4
  switch i32 %51, label %53 [
    i32 0, label %52
    i32 1, label %52
  ]

52:                                               ; preds = %50, %50
  ret void

53:                                               ; preds = %50
  unreachable
}