; Function Attrs: nounwind uwtable
define internal fastcc void @ri_GenerateQualCollation(ptr noundef nonnull %0, i32 noundef %1) unnamed_addr #0 {
  %3 = alloca [131 x i8], align 16
  call void @llvm.lifetime.start.p0(i64 131, ptr nonnull %3) #11
  %.not = icmp eq i32 %1, 0
  br i1 %.not, label %36, label %4

4:                                                ; preds = %2
  %5 = zext i32 %1 to i64
  %6 = tail call ptr @SearchSysCache1(i32 noundef 16, i64 noundef %5) #11
  %.not11 = icmp eq ptr %6, null
  br i1 %.not11, label %7, label %10

7:                                                ; preds = %4
  %8 = tail call zeroext i1 @errstart_cold(i32 noundef 21, ptr noundef null) #10
  tail call void @llvm.assume(i1 %8)
  %9 = tail call i32 (ptr, ...) @errmsg_internal(ptr noundef nonnull @.str.63, i32 noundef %1) #11
  tail call void @errfinish(ptr noundef nonnull @.str.14, i32 noundef 2108, ptr noundef nonnull @__func__.ri_GenerateQualCollation) #11
  unreachable

10:                                               ; preds = %4
  %11 = getelementptr i8, ptr %6, i64 16
  %.val = load ptr, ptr %11, align 8
  %12 = getelementptr inbounds nuw i8, ptr %.val, i64 22
  %13 = load i8, ptr %12, align 2
  %14 = zext i8 %13 to i64
  %15 = getelementptr inbounds nuw i8, ptr %.val, i64 %14
  %16 = getelementptr inbounds nuw i8, ptr %15, i64 68
  %17 = load i32, ptr %16, align 4
  %18 = tail call ptr @get_namespace_name(i32 noundef %17) #11
  store i8 34, ptr %3, align 16
  br label %19

19:                                               ; preds = %23, %10
  %.pn.i = phi ptr [ %3, %10 ], [ %.1.i, %23 ]
  %.0.i = phi ptr [ %18, %10 ], [ %25, %23 ]
  %.08.i = getelementptr inbounds nuw i8, ptr %.pn.i, i64 1
  %20 = load i8, ptr %.0.i, align 1
  switch i8 %20, label %23 [
    i8 0, label %quoteOneName.exit
    i8 34, label %21
  ]

21:                                               ; preds = %19
  %22 = getelementptr inbounds nuw i8, ptr %.pn.i, i64 2
  store i8 34, ptr %.08.i, align 1
  %.pre.i = load i8, ptr %.0.i, align 1
  br label %23

23:                                               ; preds = %21, %19
  %24 = phi i8 [ %.pre.i, %21 ], [ %20, %19 ]
  %.1.i = phi ptr [ %22, %21 ], [ %.08.i, %19 ]
  %25 = getelementptr inbounds nuw i8, ptr %.0.i, i64 1
  store i8 %24, ptr %.1.i, align 1
  br label %19, !llvm.loop !8

quoteOneName.exit:                                ; preds = %19
  %26 = getelementptr inbounds nuw i8, ptr %15, i64 4
  %27 = getelementptr inbounds nuw i8, ptr %.pn.i, i64 2
  store i8 34, ptr %.08.i, align 1
  store i8 0, ptr %27, align 1
  call void (ptr, ptr, ...) @appendStringInfo(ptr noundef nonnull %0, ptr noundef nonnull @.str.64, ptr noundef nonnull %3) #11
  store i8 34, ptr %3, align 16
  br label %28

28:                                               ; preds = %32, %quoteOneName.exit
  %.pn.i12 = phi ptr [ %3, %quoteOneName.exit ], [ %.1.i16, %32 ]
  %.0.i13 = phi ptr [ %26, %quoteOneName.exit ], [ %34, %32 ]
  %.08.i14 = getelementptr inbounds nuw i8, ptr %.pn.i12, i64 1
  %29 = load i8, ptr %.0.i13, align 1
  switch i8 %29, label %32 [
    i8 0, label %quoteOneName.exit17
    i8 34, label %30
  ]

30:                                               ; preds = %28
  %31 = getelementptr inbounds nuw i8, ptr %.pn.i12, i64 2
  store i8 34, ptr %.08.i14, align 1
  %.pre.i15 = load i8, ptr %.0.i13, align 1
  br label %32

32:                                               ; preds = %30, %28
  %33 = phi i8 [ %.pre.i15, %30 ], [ %29, %28 ]
  %.1.i16 = phi ptr [ %31, %30 ], [ %.08.i14, %28 ]
  %34 = getelementptr inbounds nuw i8, ptr %.0.i13, i64 1
  store i8 %33, ptr %.1.i16, align 1
  br label %28, !llvm.loop !8

quoteOneName.exit17:                              ; preds = %28
  %35 = getelementptr inbounds nuw i8, ptr %.pn.i12, i64 2
  store i8 34, ptr %.08.i14, align 1
  store i8 0, ptr %35, align 1
  call void (ptr, ptr, ...) @appendStringInfo(ptr noundef nonnull %0, ptr noundef nonnull @.str.65, ptr noundef nonnull %3) #11
  call void @ReleaseSysCache(ptr noundef nonnull %6) #11
  br label %36

36:                                               ; preds = %2, %quoteOneName.exit17
  call void @llvm.lifetime.end.p0(i64 131, ptr nonnull %3) #11
  ret void
}